target datalayout = "e-m:e-p270:32:32-p271:32:32-p272:64:64-i64:64-i128:128-f80:128-n8:16:32:64-S128"
target triple = "x86_64-pc-linux-gnu"

%struct.lua_State = type { i8, i8, i8, i8, i8, i8, i8, ptr, ptr, ptr, ptr, ptr, ptr, ptr, ptr, i32, i32, i16, i16, i32, ptr, ptr, ptr, ptr, ptr }
%struct.global_State = type { %struct.stringtable, ptr, ptr, i8, i8, ptr, ptr, ptr, i64, i64, i32, i32, i32, [40 x ptr], [40 x ptr], ptr, ptr, ptr, [256 x i64], ptr, %struct.UpVal, [11 x ptr], [11 x ptr], [21 x ptr], %struct.lua_TValue, %struct.lua_TValue, i32, ptr, i64, [4 x i64], %struct.lua_Callbacks, %struct.lua_ExecutionCallbacks, [128 x ptr], [128 x ptr], [128 x ptr], %struct.GCStats }
%struct.stringtable = type { ptr, i32, i32 }
%struct.UpVal = type { i8, i8, i8, i8, ptr, %union.anon }
%union.anon = type { %struct.anon }
%struct.anon = type { ptr, ptr, ptr }
%struct.lua_TValue = type { %union.Value, [1 x i32], i32 }
%union.Value = type { ptr }
%struct.lua_Callbacks = type { ptr, ptr, ptr, ptr, ptr, ptr, ptr, ptr, ptr, ptr }
%struct.lua_ExecutionCallbacks = type { ptr, ptr, ptr, ptr, ptr, ptr, ptr }
%struct.GCStats = type { [32 x i32], i32, i32, i64, i64, i64, double, double, double }
%struct.Proto = type { i8, i8, i8, i8, i8, i8, i8, i8, ptr, ptr, ptr, ptr, ptr, i64, ptr, ptr, ptr, ptr, ptr, ptr, ptr, ptr, ptr, ptr, i32, i32, i32, i32, i32, i32, i32, i32, i32, i32 }
%struct.Closure = type { i8, i8, i8, i8, i8, i8, i8, ptr, ptr, %union.anon.0 }
%union.anon.0 = type { %struct.anon.1 }
%struct.anon.1 = type { ptr, ptr, ptr, [1 x %struct.lua_TValue] }
%struct.anon.2 = type { ptr, [1 x %struct.lua_TValue] }

; Function Attrs: mustprogress uwtable
define hidden noundef ptr @_Z16luaF_newLclosureP9lua_StateiP8LuaTableP5Proto(ptr noundef %0, i32 noundef %1, ptr noundef %2, ptr noundef %3) #0 {
  %5 = alloca ptr, align 8
  %6 = alloca i32, align 4
  %7 = alloca ptr, align 8
  %8 = alloca ptr, align 8
  %9 = alloca ptr, align 8
  %10 = alloca i32, align 4
  store ptr %0, ptr %5, align 8, !tbaa !4
  store i32 %1, ptr %6, align 4, !tbaa !77
  store ptr %2, ptr %7, align 8, !tbaa !78
  store ptr %3, ptr %8, align 8, !tbaa !21
  call void @llvm.lifetime.start.p0(i64 8, ptr %9) #5
  %11 = load ptr, ptr %5, align 8, !tbaa !4
  %12 = load i32, ptr %6, align 4, !tbaa !77
  %13 = sext i32 %12 to i64
  %14 = mul i64 16, %13
  %15 = add i64 32, %14
  %16 = load ptr, ptr %5, align 8, !tbaa !4
  %17 = getelementptr inbounds nuw %struct.lua_State, ptr %16, i32 0, i32 4
  %18 = load i8, ptr %17, align 4, !tbaa !9
  %19 = call noundef ptr @_Z12luaM_newgco_P9lua_Statemh(ptr noundef %11, i64 noundef %15, i8 noundef zeroext %18)
  store ptr %19, ptr %9, align 8, !tbaa !79
  %20 = load ptr, ptr %5, align 8, !tbaa !4
  %21 = getelementptr inbounds nuw %struct.lua_State, ptr %20, i32 0, i32 9
  %22 = load ptr, ptr %21, align 8, !tbaa !23
  %23 = getelementptr inbounds nuw %struct.global_State, ptr %22, i32 0, i32 3
  %24 = load i8, ptr %23, align 8, !tbaa !24
  %25 = zext i8 %24 to i32
  %26 = and i32 %25, 3
  %27 = trunc i32 %26 to i8
  %28 = load ptr, ptr %9, align 8, !tbaa !79
  %29 = getelementptr inbounds nuw %struct.Closure, ptr %28, i32 0, i32 1
  store i8 %27, ptr %29, align 1, !tbaa !81
  %30 = load ptr, ptr %9, align 8, !tbaa !79
  %31 = getelementptr inbounds nuw %struct.Closure, ptr %30, i32 0, i32 0
  store i8 7, ptr %31, align 8, !tbaa !83
  %32 = load ptr, ptr %5, align 8, !tbaa !4
  %33 = getelementptr inbounds nuw %struct.lua_State, ptr %32, i32 0, i32 4
  %34 = load i8, ptr %33, align 4, !tbaa !9
  %35 = load ptr, ptr %9, align 8, !tbaa !79
  %36 = getelementptr inbounds nuw %struct.Closure, ptr %35, i32 0, i32 2
  store i8 %34, ptr %36, align 2, !tbaa !84
  %37 = load ptr, ptr %9, align 8, !tbaa !79
  %38 = getelementptr inbounds nuw %struct.Closure, ptr %37, i32 0, i32 3
  store i8 0, ptr %38, align 1, !tbaa !85
  %39 = load ptr, ptr %7, align 8, !tbaa !78
  %40 = load ptr, ptr %9, align 8, !tbaa !79
  %41 = getelementptr inbounds nuw %struct.Closure, ptr %40, i32 0, i32 8
  store ptr %39, ptr %41, align 8, !tbaa !86
  %42 = load i32, ptr %6, align 4, !tbaa !77
  %43 = trunc i32 %42 to i8
  %44 = load ptr, ptr %9, align 8, !tbaa !79
  %45 = getelementptr inbounds nuw %struct.Closure, ptr %44, i32 0, i32 4
  store i8 %43, ptr %45, align 4, !tbaa !87
  %46 = load ptr, ptr %8, align 8, !tbaa !21
  %47 = getelementptr inbounds nuw %struct.Proto, ptr %46, i32 0, i32 6
  %48 = load i8, ptr %47, align 2, !tbaa !49
  %49 = load ptr, ptr %9, align 8, !tbaa !79
  %50 = getelementptr inbounds nuw %struct.Closure, ptr %49, i32 0, i32 5
  store i8 %48, ptr %50, align 1, !tbaa !88
  %51 = load ptr, ptr %9, align 8, !tbaa !79
  %52 = getelementptr inbounds nuw %struct.Closure, ptr %51, i32 0, i32 6
  store i8 0, ptr %52, align 2, !tbaa !89
  %53 = load ptr, ptr %8, align 8, !tbaa !21
  %54 = load ptr, ptr %9, align 8, !tbaa !79
  %55 = getelementptr inbounds nuw %struct.Closure, ptr %54, i32 0, i32 9
  %56 = getelementptr inbounds nuw %struct.anon.2, ptr %55, i32 0, i32 0
  store ptr %53, ptr %56, align 8, !tbaa !90
  call void @llvm.lifetime.start.p0(i64 4, ptr %10) #5
  store i32 0, ptr %10, align 4, !tbaa !77
  br label %57

57:                                               ; preds = %70, %4
  %58 = load i32, ptr %10, align 4, !tbaa !77
  %59 = load i32, ptr %6, align 4, !tbaa !77
  %60 = icmp slt i32 %58, %59
  br i1 %60, label %62, label %61

61:                                               ; preds = %57
  call void @llvm.lifetime.end.p0(i64 4, ptr %10) #5
  br label %73

62:                                               ; preds = %57
  %63 = load ptr, ptr %9, align 8, !tbaa !79
  %64 = getelementptr inbounds nuw %struct.Closure, ptr %63, i32 0, i32 9
  %65 = getelementptr inbounds nuw %struct.anon.2, ptr %64, i32 0, i32 1
  %66 = load i32, ptr %10, align 4, !tbaa !77
  %67 = sext i32 %66 to i64
  %68 = getelementptr inbounds [1 x %struct.lua_TValue], ptr %65, i64 0, i64 %67
  %69 = getelementptr inbounds nuw %struct.lua_TValue, ptr %68, i32 0, i32 2
  store i32 0, ptr %69, align 4, !tbaa !90
  br label %70

70:                                               ; preds = %62
  %71 = load i32, ptr %10, align 4, !tbaa !77
  %72 = add nsw i32 %71, 1
  store i32 %72, ptr %10, align 4, !tbaa !77
  br label %57, !llvm.loop !91

73:                                               ; preds = %61
  %74 = load ptr, ptr %9, align 8, !tbaa !79
  call void @llvm.lifetime.end.p0(i64 8, ptr %9) #5
  ret ptr %74
}