; Function Attrs: mustprogress uwtable
define hidden noundef ptr @_Z16luaF_newLclosureP9lua_StateiP8LuaTableP5Proto(ptr noundef %0, i32 noundef %1, ptr noundef %2, ptr noundef %3) local_unnamed_addr #0 {
  %5 = sext i32 %1 to i64
  %6 = shl nsw i64 %5, 4
  %7 = add nsw i64 %6, 32
  %8 = getelementptr inbounds nuw i8, ptr %0, i64 4
  %9 = load i8, ptr %8, align 4, !tbaa !4
  %10 = tail call noundef ptr @_Z12luaM_newgco_P9lua_Statemh(ptr noundef %0, i64 noundef %7, i8 noundef zeroext %9)
  %11 = getelementptr inbounds nuw i8, ptr %0, i64 24
  %12 = load ptr, ptr %11, align 8, !tbaa !19
  %13 = getelementptr inbounds nuw i8, ptr %12, i64 32
  %14 = load i8, ptr %13, align 8, !tbaa !20
  %15 = and i8 %14, 3
  %16 = getelementptr inbounds nuw i8, ptr %10, i64 1
  store i8 %15, ptr %16, align 1, !tbaa !43
  store i8 7, ptr %10, align 8, !tbaa !45
  %17 = load i8, ptr %8, align 4, !tbaa !4
  %18 = getelementptr inbounds nuw i8, ptr %10, i64 2
  store i8 %17, ptr %18, align 2, !tbaa !46
  %19 = getelementptr inbounds nuw i8, ptr %10, i64 3
  store i8 0, ptr %19, align 1, !tbaa !47
  %20 = getelementptr inbounds nuw i8, ptr %10, i64 16
  store ptr %2, ptr %20, align 8, !tbaa !48
  %21 = trunc i32 %1 to i8
  %22 = getelementptr inbounds nuw i8, ptr %10, i64 4
  store i8 %21, ptr %22, align 4, !tbaa !49
  %23 = getelementptr inbounds nuw i8, ptr %3, i64 6
  %24 = load i8, ptr %23, align 2, !tbaa !50
  %25 = getelementptr inbounds nuw i8, ptr %10, i64 5
  store i8 %24, ptr %25, align 1, !tbaa !51
  %26 = getelementptr inbounds nuw i8, ptr %10, i64 6
  store i8 0, ptr %26, align 2, !tbaa !52
  %27 = getelementptr inbounds nuw i8, ptr %10, i64 24
  store ptr %3, ptr %27, align 8, !tbaa !53
  %28 = icmp sgt i32 %1, 0
  br i1 %28, label %.lr.ph, label %._crit_edge

.lr.ph:                                           ; preds = %4
  %29 = getelementptr i8, ptr %10, i64 44
  %wide.trip.count = zext nneg i32 %1 to i64
  br label %30

._crit_edge:                                      ; preds = %30, %4
  ret ptr %10

30:                                               ; preds = %.lr.ph, %30
  %indvars.iv = phi i64 [ 0, %.lr.ph ], [ %indvars.iv.next, %30 ]
  %.idx = shl nuw nsw i64 %indvars.iv, 4
  %31 = getelementptr i8, ptr %29, i64 %.idx
  store i32 0, ptr %31, align 4, !tbaa !53
  %indvars.iv.next = add nuw nsw i64 %indvars.iv, 1
  %exitcond.not = icmp eq i64 %indvars.iv.next, %wide.trip.count
  br i1 %exitcond.not, label %._crit_edge, label %30, !llvm.loop !54
}